; ModuleID = 'source-C-CXX/6/913.c'
source_filename = "source-C-CXX/6/913.c"
target datalayout = "e-m:e-p270:32:32-p271:32:32-p272:64:64-i64:64-f80:128-n8:16:32:64-S128"
target triple = "x86_64-pc-linux-gnu"

; Function Attrs: nounwind sspstrong uwtable
define dso_local i32 @main() local_unnamed_addr #0 {
  %1 = alloca [100 x i8], align 16
  %2 = getelementptr inbounds [100 x i8], [100 x i8]* %1, i64 0, i64 0
  %3 = alloca [100 x i8], align 16
  %4 = alloca [100 x i8], align 16
  %5 = getelementptr inbounds [100 x i8], [100 x i8]* %1, i64 0, i64 0
  call void @llvm.lifetime.start.p0i8(i64 100, i8* nonnull %5) #7
  %6 = getelementptr inbounds [100 x i8], [100 x i8]* %3, i64 0, i64 0
  call void @llvm.lifetime.start.p0i8(i64 100, i8* nonnull %6) #7
  %7 = getelementptr inbounds [100 x i8], [100 x i8]* %4, i64 0, i64 0
  call void @llvm.lifetime.start.p0i8(i64 100, i8* nonnull %7) #7
  %8 = call i32 (i8*, ...) bitcast (i32 (...)* @gets to i32 (i8*, ...)*)(i8* nonnull %6) #7
  %9 = call i32 (i8*, ...) bitcast (i32 (...)* @gets to i32 (i8*, ...)*)(i8* nonnull %7) #7
  %10 = call i32 (i8*, ...) bitcast (i32 (...)* @gets to i32 (i8*, ...)*)(i8* nonnull %5) #7
  %11 = call i64 @strlen(i8* noundef nonnull %6) #8
  %12 = trunc i64 %11 to i32
  %13 = call i64 @strlen(i8* noundef nonnull %7) #8
  %14 = trunc i64 %13 to i32
  %15 = load i8, i8* %7, align 16
  %16 = shl i64 %13, 32
  %17 = add i64 %16, -4294967296
  %18 = ashr exact i64 %17, 32
  %19 = getelementptr inbounds [100 x i8], [100 x i8]* %4, i64 0, i64 %18
  %20 = icmp sgt i32 %12, 0
  br i1 %20, label %21, label %51

21:                                               ; preds = %0
  %22 = and i64 %11, 4294967295
  br label %23

23:                                               ; preds = %21, %48
  %24 = phi i64 [ 0, %21 ], [ %49, %48 ]
  %25 = getelementptr [100 x i8], [100 x i8]* %3, i64 0, i64 %24
  %26 = load i8, i8* %25, align 1, !tbaa !5
  %27 = icmp eq i8 %26, %15
  br i1 %27, label %28, label %48

28:                                               ; preds = %23
  %29 = trunc i64 %24 to i32
  %30 = add nsw i32 %29, %14
  %31 = add nsw i32 %30, -1
  %32 = sext i32 %31 to i64
  %33 = getelementptr inbounds [100 x i8], [100 x i8]* %3, i64 0, i64 %32
  %34 = load i8, i8* %33, align 1, !tbaa !5
  %35 = load i8, i8* %19, align 1, !tbaa !5
  %36 = icmp eq i8 %34, %35
  br i1 %36, label %37, label %48

37:                                               ; preds = %28
  %38 = trunc i64 %24 to i32
  %39 = icmp sgt i32 %14, 0
  br i1 %39, label %40, label %51

40:                                               ; preds = %37
  %41 = getelementptr [100 x i8], [100 x i8]* %3, i64 0, i64 %24
  %42 = add nuw nsw i32 %38, 1
  %43 = call i32 @llvm.smax.i32(i32 %30, i32 %42)
  %44 = xor i32 %38, -1
  %45 = add i32 %43, %44
  %46 = zext i32 %45 to i64
  %47 = add nuw nsw i64 %46, 1
  call void @llvm.memcpy.p0i8.p0i8.i64(i8* noundef nonnull align 1 %41, i8* noundef nonnull align 16 %2, i64 %47, i1 false)
  br label %51

48:                                               ; preds = %23, %28
  %49 = add nuw nsw i64 %24, 1
  %50 = icmp eq i64 %49, %22
  br i1 %50, label %51, label %23, !llvm.loop !8

51:                                               ; preds = %48, %40, %0, %37
  %52 = call i32 @puts(i8* nonnull %6)
  call void @llvm.lifetime.end.p0i8(i64 100, i8* nonnull %7) #7
  call void @llvm.lifetime.end.p0i8(i64 100, i8* nonnull %6) #7
  call void @llvm.lifetime.end.p0i8(i64 100, i8* nonnull %5) #7
  ret i32 0
}

; Function Attrs: argmemonly mustprogress nofree nosync nounwind willreturn
declare void @llvm.lifetime.start.p0i8(i64 immarg, i8* nocapture) #1

declare i32 @gets(...) local_unnamed_addr #2

; Function Attrs: argmemonly mustprogress nofree nounwind readonly willreturn
declare i64 @strlen(i8* nocapture) local_unnamed_addr #3

; Function Attrs: nofree nounwind
declare noundef i32 @puts(i8* nocapture noundef readonly) local_unnamed_addr #4

; Function Attrs: argmemonly mustprogress nofree nosync nounwind willreturn
declare void @llvm.lifetime.end.p0i8(i64 immarg, i8* nocapture) #1

; Function Attrs: nofree nosync nounwind readnone speculatable willreturn
declare i32 @llvm.smax.i32(i32, i32) #5

; Function Attrs: argmemonly nofree nounwind willreturn
declare void @llvm.memcpy.p0i8.p0i8.i64(i8* noalias nocapture writeonly, i8* noalias nocapture readonly, i64, i1 immarg) #6


!llvm.module.flags = !{!0, !1, !2, !3}
!llvm.ident = !{!4}

!0 = !{i32 1, !"wchar_size", i32 4}
!1 = !{i32 7, !"PIC Level", i32 2}
!2 = !{i32 7, !"PIE Level", i32 2}
!3 = !{i32 7, !"uwtable", i32 1}
!4 = !{!"clang version 13.0.0"}
!5 = !{!6, !6, i64 0}
!6 = !{!"omnipotent char", !7, i64 0}
!7 = !{!"Simple C/C++ TBAA"}
!8 = distinct !{!8, !9}
!9 = !{!"llvm.loop.mustprogress"}
